; Function Attrs: mustprogress nofree norecurse nosync nounwind willreturn memory(argmem: write) uwtable
define hidden void @_ZN4cvc58internal13preprocessing4util18IncomingArcCounterC2Ebb(ptr noundef nonnull align 8 dereferenceable(58) initializes((32, 40)) %0, i1 noundef zeroext %1, i1 noundef zeroext %2) unnamed_addr #8 align 2 {
  %4 = zext i1 %1 to i8
  %5 = zext i1 %2 to i8
  %6 = getelementptr inbounds nuw i8, ptr %0, i64 32
  store i64 0, ptr %6, align 8
  %7 = getelementptr inbounds nuw i8, ptr %0, i64 48
  store ptr %7, ptr %0, align 8, !tbaa !320
  %8 = getelementptr inbounds nuw i8, ptr %0, i64 8
  store i64 1, ptr %8, align 8, !tbaa !321
  %9 = getelementptr inbounds nuw i8, ptr %0, i64 16
  %10 = getelementptr inbounds nuw i8, ptr %0, i64 32
  tail call void @llvm.memset.p0.i64(ptr noundef nonnull align 8 dereferenceable(16) %9, i8 0, i64 16, i1 false)
  store float 1.000000e+00, ptr %10, align 8, !tbaa !17
  %11 = getelementptr inbounds nuw i8, ptr %0, i64 40
  tail call void @llvm.memset.p0.i64(ptr noundef nonnull align 8 dereferenceable(16) %11, i8 0, i64 16, i1 false)
  %12 = getelementptr inbounds nuw i8, ptr %0, i64 56
  store i8 %4, ptr %12, align 8, !tbaa !358
  %13 = getelementptr inbounds nuw i8, ptr %0, i64 57
  store i8 %5, ptr %13, align 1, !tbaa !359
  ret void
}